target datalayout = "e-m:e-p270:32:32-p271:32:32-p272:64:64-i64:64-i128:128-f80:128-n8:16:32:64-S128"
target triple = "x86_64-pc-linux-gnu"

%"class.std::unique_ptr" = type { %"struct.std::__uniq_ptr_data" }
%"struct.std::__uniq_ptr_data" = type { %"class.std::__uniq_ptr_impl" }
%"class.std::__uniq_ptr_impl" = type { %"class.std::tuple" }
%"class.std::tuple" = type { %"struct.std::_Tuple_impl" }
%"struct.std::_Tuple_impl" = type { %"struct.std::_Head_base.7" }
%"struct.std::_Head_base.7" = type { ptr }
%"struct.nix::BufferedSink" = type { %"struct.nix::Sink", i64, i64, %"class.std::unique_ptr" }
%"struct.nix::Sink" = type { ptr }
%"struct.nix::FdSink" = type <{ %"struct.nix::BufferedSink", i32, [4 x i8], i64, i8, [7 x i8] }>

; Function Attrs: mustprogress nounwind uwtable
define noundef zeroext i1 @_ZN3nix6FdSink4goodEv(ptr noundef nonnull align 8 dereferenceable(49) %0) unnamed_addr #2 align 2 {
  %2 = alloca ptr, align 8
  store ptr %0, ptr %2, align 8
  %3 = load ptr, ptr %2, align 8
  %4 = getelementptr inbounds %"struct.nix::FdSink", ptr %3, i32 0, i32 4
  %5 = load i8, ptr %4, align 8
  %6 = trunc i8 %5 to i1
  ret i1 %6
}

; Function Attrs: uwtable
define noundef zeroext i1 @_ZTv0_n40_N3nix6FdSink4goodEv(ptr noundef %0) unnamed_addr #0 align 2 {
  %2 = alloca ptr, align 8
  store ptr %0, ptr %2, align 8
  %3 = load ptr, ptr %2, align 8
  %4 = load ptr, ptr %3, align 8
  %5 = getelementptr inbounds i8, ptr %4, i64 -40
  %6 = load i64, ptr %5, align 8
  %7 = getelementptr inbounds i8, ptr %3, i64 %6
  %8 = tail call noundef zeroext i1 @_ZN3nix6FdSink4goodEv(ptr noundef nonnull align 8 dereferenceable(49) %7)
  ret i1 %8
}