; Function Attrs: mustprogress nofree norecurse nosync nounwind willreturn memory(read, inaccessiblemem: none) uwtable
define noundef zeroext i1 @_ZTv0_n40_N3nix6FdSink4goodEv(ptr nocapture noundef readonly %0) unnamed_addr #13 align 2 {
  %2 = load ptr, ptr %0, align 8
  %3 = getelementptr inbounds i8, ptr %2, i64 -40
  %4 = load i64, ptr %3, align 8
  %5 = getelementptr inbounds i8, ptr %0, i64 %4
  %6 = getelementptr inbounds i8, ptr %5, i64 48
  %7 = load i8, ptr %6, align 8
  %8 = and i8 %7, 1
  %9 = icmp ne i8 %8, 0
  ret i1 %9
}